target datalayout = "e-m:e-p270:32:32-p271:32:32-p272:64:64-i64:64-i128:128-f80:128-n8:16:32:64-S128"
target triple = "x86_64-pc-linux-gnu"

%struct.formnode = type { i16, i16, i16, i32, i32, i32, i32, i16, i16, i16, i32, ptr, ptr, ptr, ptr, ptr, ptr, ptr, ptr, ptr, ptr, ptr }
%struct.fieldnode = type { i16, i16, i16, i16, i16, i32, i32, i32, i32, i16, i16, i16, i16, i32, i32, i32, i32, ptr, ptr, ptr, ptr, ptr, ptr, ptr, ptr }

@stdscr = external global ptr, align 8

; Function Attrs: nounwind uwtable
define dso_local i32 @_nc_Synchronize_Attributes(ptr noundef %0) #0 {
  %2 = alloca i32, align 4
  %3 = alloca ptr, align 8
  %4 = alloca ptr, align 8
  %5 = alloca i32, align 4
  %6 = alloca ptr, align 8
  %7 = alloca i32, align 4
  store ptr %0, ptr %3, align 8, !tbaa !17
  call void @llvm.lifetime.start.p0(i64 8, ptr %4) #9
  call void @llvm.lifetime.start.p0(i64 4, ptr %5) #9
  store i32 0, ptr %5, align 4, !tbaa !35
  call void @llvm.lifetime.start.p0(i64 8, ptr %6) #9
  %8 = load ptr, ptr %3, align 8, !tbaa !17
  %9 = icmp ne ptr %8, null
  br i1 %9, label %11, label %10

10:                                               ; preds = %1
  store i32 -2, ptr %2, align 4
  store i32 1, ptr %7, align 4
  br label %191

11:                                               ; preds = %1
  %12 = load ptr, ptr %3, align 8, !tbaa !17
  %13 = getelementptr inbounds nuw %struct.fieldnode, ptr %12, i32 0, i32 20
  %14 = load ptr, ptr %13, align 8, !tbaa !46
  store ptr %14, ptr %4, align 8, !tbaa !4
  %15 = icmp ne ptr %14, null
  br i1 %15, label %16, label %189

16:                                               ; preds = %11
  %17 = load ptr, ptr %3, align 8, !tbaa !17
  %18 = getelementptr inbounds nuw %struct.fieldnode, ptr %17, i32 0, i32 20
  %19 = load ptr, ptr %18, align 8, !tbaa !46
  %20 = icmp ne ptr %19, null
  br i1 %20, label %21, label %189

21:                                               ; preds = %16
  %22 = load ptr, ptr %3, align 8, !tbaa !17
  %23 = getelementptr inbounds nuw %struct.fieldnode, ptr %22, i32 0, i32 20
  %24 = load ptr, ptr %23, align 8, !tbaa !46
  %25 = getelementptr inbounds nuw %struct.formnode, ptr %24, i32 0, i32 0
  %26 = load i16, ptr %25, align 8, !tbaa !47
  %27 = zext i16 %26 to i32
  %28 = and i32 %27, 1
  %29 = icmp ne i32 %28, 0
  br i1 %29, label %30, label %189

30:                                               ; preds = %21
  %31 = load ptr, ptr %3, align 8, !tbaa !17
  %32 = getelementptr inbounds nuw %struct.fieldnode, ptr %31, i32 0, i32 16
  %33 = load i32, ptr %32, align 8, !tbaa !23
  %34 = and i32 %33, 1
  %35 = icmp ne i32 %34, 0
  br i1 %35, label %36, label %189

36:                                               ; preds = %30
  %37 = load ptr, ptr %3, align 8, !tbaa !17
  %38 = getelementptr inbounds nuw %struct.fieldnode, ptr %37, i32 0, i32 11
  %39 = load i16, ptr %38, align 8, !tbaa !48
  %40 = sext i16 %39 to i32
  %41 = load ptr, ptr %3, align 8, !tbaa !17
  %42 = getelementptr inbounds nuw %struct.fieldnode, ptr %41, i32 0, i32 20
  %43 = load ptr, ptr %42, align 8, !tbaa !46
  %44 = getelementptr inbounds nuw %struct.formnode, ptr %43, i32 0, i32 9
  %45 = load i16, ptr %44, align 4, !tbaa !49
  %46 = sext i16 %45 to i32
  %47 = icmp eq i32 %40, %46
  br i1 %47, label %48, label %189

48:                                               ; preds = %36
  %49 = load ptr, ptr %4, align 8, !tbaa !4
  %50 = getelementptr inbounds nuw %struct.formnode, ptr %49, i32 0, i32 15
  %51 = load ptr, ptr %50, align 8, !tbaa !16
  %52 = load ptr, ptr %3, align 8, !tbaa !17
  %53 = icmp eq ptr %51, %52
  br i1 %53, label %54, label %185

54:                                               ; preds = %48
  %55 = load ptr, ptr %4, align 8, !tbaa !4
  call void @Synchronize_Buffer(ptr noundef %55)
  %56 = load ptr, ptr %4, align 8, !tbaa !4
  %57 = getelementptr inbounds nuw %struct.formnode, ptr %56, i32 0, i32 13
  %58 = load ptr, ptr %57, align 8, !tbaa !9
  %59 = load ptr, ptr %3, align 8, !tbaa !17
  %60 = getelementptr inbounds nuw %struct.fieldnode, ptr %59, i32 0, i32 13
  %61 = load i32, ptr %60, align 4, !tbaa !50
  %62 = load ptr, ptr %3, align 8, !tbaa !17
  %63 = getelementptr inbounds nuw %struct.fieldnode, ptr %62, i32 0, i32 15
  %64 = load i32, ptr %63, align 4, !tbaa !51
  %65 = or i32 %61, %64
  call void @wbkgdset(ptr noundef %58, i32 noundef %65)
  %66 = load ptr, ptr %4, align 8, !tbaa !4
  %67 = getelementptr inbounds nuw %struct.formnode, ptr %66, i32 0, i32 13
  %68 = load ptr, ptr %67, align 8, !tbaa !9
  %69 = load ptr, ptr %3, align 8, !tbaa !17
  %70 = getelementptr inbounds nuw %struct.fieldnode, ptr %69, i32 0, i32 14
  %71 = load i32, ptr %70, align 8, !tbaa !52
  %72 = call i32 @wattrset(ptr noundef %68, i32 noundef %71)
  %73 = load ptr, ptr %4, align 8, !tbaa !4
  %74 = getelementptr inbounds nuw %struct.formnode, ptr %73, i32 0, i32 13
  %75 = load ptr, ptr %74, align 8, !tbaa !9
  %76 = call i32 @werase(ptr noundef %75)
  %77 = load ptr, ptr %3, align 8, !tbaa !17
  %78 = getelementptr inbounds nuw %struct.fieldnode, ptr %77, i32 0, i32 16
  %79 = load i32, ptr %78, align 8, !tbaa !23
  %80 = and i32 %79, 4
  %81 = icmp ne i32 %80, 0
  br i1 %81, label %82, label %124

82:                                               ; preds = %54
  %83 = load ptr, ptr %3, align 8, !tbaa !17
  %84 = getelementptr inbounds nuw %struct.fieldnode, ptr %83, i32 0, i32 10
  %85 = load i16, ptr %84, align 2, !tbaa !53
  %86 = sext i16 %85 to i32
  %87 = icmp ne i32 %86, 0
  br i1 %87, label %88, label %118

88:                                               ; preds = %82
  %89 = load ptr, ptr %3, align 8, !tbaa !17
  %90 = getelementptr inbounds nuw %struct.fieldnode, ptr %89, i32 0, i32 1
  %91 = load i16, ptr %90, align 2, !tbaa !28
  %92 = sext i16 %91 to i32
  %93 = load ptr, ptr %3, align 8, !tbaa !17
  %94 = getelementptr inbounds nuw %struct.fieldnode, ptr %93, i32 0, i32 8
  %95 = load i32, ptr %94, align 8, !tbaa !36
  %96 = add nsw i32 %92, %95
  %97 = icmp eq i32 %96, 1
  br i1 %97, label %98, label %118

98:                                               ; preds = %88
  %99 = load ptr, ptr %3, align 8, !tbaa !17
  %100 = getelementptr inbounds nuw %struct.fieldnode, ptr %99, i32 0, i32 6
  %101 = load i32, ptr %100, align 8, !tbaa !29
  %102 = load ptr, ptr %3, align 8, !tbaa !17
  %103 = getelementptr inbounds nuw %struct.fieldnode, ptr %102, i32 0, i32 2
  %104 = load i16, ptr %103, align 4, !tbaa !30
  %105 = sext i16 %104 to i32
  %106 = icmp eq i32 %101, %105
  br i1 %106, label %107, label %118

107:                                              ; preds = %98
  %108 = load ptr, ptr %3, align 8, !tbaa !17
  %109 = getelementptr inbounds nuw %struct.fieldnode, ptr %108, i32 0, i32 16
  %110 = load i32, ptr %109, align 8, !tbaa !23
  %111 = and i32 %110, 512
  %112 = icmp ne i32 %111, 0
  br i1 %112, label %113, label %118

113:                                              ; preds = %107
  %114 = load ptr, ptr %3, align 8, !tbaa !17
  %115 = load ptr, ptr %4, align 8, !tbaa !4
  %116 = getelementptr inbounds nuw %struct.formnode, ptr %115, i32 0, i32 13
  %117 = load ptr, ptr %116, align 8, !tbaa !9
  call void @Undo_Justification(ptr noundef %114, ptr noundef %117)
  br label %123

118:                                              ; preds = %107, %98, %88, %82
  %119 = load ptr, ptr %3, align 8, !tbaa !17
  %120 = load ptr, ptr %4, align 8, !tbaa !4
  %121 = getelementptr inbounds nuw %struct.formnode, ptr %120, i32 0, i32 13
  %122 = load ptr, ptr %121, align 8, !tbaa !9
  call void @Buffer_To_Window(ptr noundef %119, ptr noundef %122)
  br label %123

123:                                              ; preds = %118, %113
  br label %184

124:                                              ; preds = %54
  %125 = load ptr, ptr %4, align 8, !tbaa !4
  %126 = getelementptr inbounds nuw %struct.formnode, ptr %125, i32 0, i32 12
  %127 = load ptr, ptr %126, align 8, !tbaa !18
  %128 = icmp ne ptr %127, null
  br i1 %128, label %129, label %133

129:                                              ; preds = %124
  %130 = load ptr, ptr %4, align 8, !tbaa !4
  %131 = getelementptr inbounds nuw %struct.formnode, ptr %130, i32 0, i32 12
  %132 = load ptr, ptr %131, align 8, !tbaa !18
  br label %146

133:                                              ; preds = %124
  %134 = load ptr, ptr %4, align 8, !tbaa !4
  %135 = getelementptr inbounds nuw %struct.formnode, ptr %134, i32 0, i32 11
  %136 = load ptr, ptr %135, align 8, !tbaa !19
  %137 = icmp ne ptr %136, null
  br i1 %137, label %138, label %142

138:                                              ; preds = %133
  %139 = load ptr, ptr %4, align 8, !tbaa !4
  %140 = getelementptr inbounds nuw %struct.formnode, ptr %139, i32 0, i32 11
  %141 = load ptr, ptr %140, align 8, !tbaa !19
  br label %144

142:                                              ; preds = %133
  %143 = load ptr, ptr @stdscr, align 8, !tbaa !20
  br label %144

144:                                              ; preds = %142, %138
  %145 = phi ptr [ %141, %138 ], [ %143, %142 ]
  br label %146

146:                                              ; preds = %144, %129
  %147 = phi ptr [ %132, %129 ], [ %145, %144 ]
  store ptr %147, ptr %6, align 8, !tbaa !20
  %148 = load ptr, ptr %4, align 8, !tbaa !4
  %149 = getelementptr inbounds nuw %struct.formnode, ptr %148, i32 0, i32 13
  %150 = load ptr, ptr %149, align 8, !tbaa !9
  %151 = load ptr, ptr %6, align 8, !tbaa !20
  %152 = load ptr, ptr %3, align 8, !tbaa !17
  %153 = getelementptr inbounds nuw %struct.fieldnode, ptr %152, i32 0, i32 3
  %154 = load i16, ptr %153, align 2, !tbaa !31
  %155 = sext i16 %154 to i32
  %156 = load ptr, ptr %3, align 8, !tbaa !17
  %157 = getelementptr inbounds nuw %struct.fieldnode, ptr %156, i32 0, i32 4
  %158 = load i16, ptr %157, align 8, !tbaa !33
  %159 = sext i16 %158 to i32
  %160 = load ptr, ptr %3, align 8, !tbaa !17
  %161 = getelementptr inbounds nuw %struct.fieldnode, ptr %160, i32 0, i32 1
  %162 = load i16, ptr %161, align 2, !tbaa !28
  %163 = sext i16 %162 to i32
  %164 = sub nsw i32 %163, 1
  %165 = load ptr, ptr %3, align 8, !tbaa !17
  %166 = getelementptr inbounds nuw %struct.fieldnode, ptr %165, i32 0, i32 2
  %167 = load i16, ptr %166, align 4, !tbaa !30
  %168 = sext i16 %167 to i32
  %169 = sub nsw i32 %168, 1
  %170 = call i32 @copywin(ptr noundef %150, ptr noundef %151, i32 noundef 0, i32 noundef 0, i32 noundef %155, i32 noundef %159, i32 noundef %164, i32 noundef %169, i32 noundef 0)
  %171 = load ptr, ptr %6, align 8, !tbaa !20
  call void @wsyncup(ptr noundef %171)
  %172 = load ptr, ptr %3, align 8, !tbaa !17
  %173 = load ptr, ptr %4, align 8, !tbaa !4
  %174 = getelementptr inbounds nuw %struct.formnode, ptr %173, i32 0, i32 13
  %175 = load ptr, ptr %174, align 8, !tbaa !9
  call void @Buffer_To_Window(ptr noundef %172, ptr noundef %175)
  %176 = load ptr, ptr %3, align 8, !tbaa !17
  %177 = getelementptr inbounds nuw %struct.fieldnode, ptr %176, i32 0, i32 0
  %178 = load i16, ptr %177, align 8, !tbaa !37
  %179 = zext i16 %178 to i32
  %180 = or i32 %179, 2
  %181 = trunc i32 %180 to i16
  store i16 %181, ptr %177, align 8, !tbaa !37
  %182 = load ptr, ptr %4, align 8, !tbaa !4
  %183 = call i32 @_nc_Refresh_Current_Field(ptr noundef %182)
  br label %184

184:                                              ; preds = %146, %123
  br label %188

185:                                              ; preds = %48
  %186 = load ptr, ptr %3, align 8, !tbaa !17
  %187 = call i32 @Display_Or_Erase_Field(ptr noundef %186, i1 noundef zeroext false)
  store i32 %187, ptr %5, align 4, !tbaa !35
  br label %188

188:                                              ; preds = %185, %184
  br label %189

189:                                              ; preds = %188, %36, %30, %21, %16, %11
  %190 = load i32, ptr %5, align 4, !tbaa !35
  store i32 %190, ptr %2, align 4
  store i32 1, ptr %7, align 4
  br label %191

191:                                              ; preds = %189, %10
  call void @llvm.lifetime.end.p0(i64 8, ptr %6) #9
  call void @llvm.lifetime.end.p0(i64 4, ptr %5) #9
  call void @llvm.lifetime.end.p0(i64 8, ptr %4) #9
  %192 = load i32, ptr %2, align 4
  ret i32 %192
}