; Function Attrs: nounwind uwtable
define dso_local range(i32 -2, 1) i32 @_nc_Synchronize_Attributes(ptr noundef %0) local_unnamed_addr #0 {
  %.not = icmp eq ptr %0, null
  br i1 %.not, label %92, label %2

2:                                                ; preds = %1
  %3 = getelementptr inbounds nuw i8, ptr %0, i64 80
  %4 = load ptr, ptr %3, align 8, !tbaa !44
  %.not49 = icmp eq ptr %4, null
  br i1 %.not49, label %92, label %5

5:                                                ; preds = %2
  %6 = load i16, ptr %4, align 8, !tbaa !45
  %7 = and i16 %6, 1
  %.not50 = icmp eq i16 %7, 0
  br i1 %.not50, label %92, label %8

8:                                                ; preds = %5
  %9 = getelementptr inbounds nuw i8, ptr %0, i64 48
  %10 = load i32, ptr %9, align 8, !tbaa !19
  %11 = and i32 %10, 1
  %.not51 = icmp eq i32 %11, 0
  br i1 %.not51, label %92, label %12

12:                                               ; preds = %8
  %13 = getelementptr inbounds nuw i8, ptr %0, i64 32
  %14 = load i16, ptr %13, align 8, !tbaa !46
  %15 = getelementptr inbounds nuw i8, ptr %4, i64 28
  %16 = load i16, ptr %15, align 4, !tbaa !47
  %17 = icmp eq i16 %14, %16
  br i1 %17, label %18, label %92

18:                                               ; preds = %12
  %19 = getelementptr inbounds nuw i8, ptr %4, i64 72
  %20 = load ptr, ptr %19, align 8, !tbaa !14
  %21 = icmp eq ptr %20, %0
  br i1 %21, label %22, label %90

22:                                               ; preds = %18
  tail call fastcc void @Synchronize_Buffer(ptr noundef nonnull %4)
  %23 = getelementptr inbounds nuw i8, ptr %4, i64 56
  %24 = load ptr, ptr %23, align 8, !tbaa !4
  %25 = getelementptr inbounds nuw i8, ptr %0, i64 36
  %26 = load i32, ptr %25, align 4, !tbaa !48
  %27 = getelementptr inbounds nuw i8, ptr %0, i64 44
  %28 = load i32, ptr %27, align 4, !tbaa !49
  %29 = or i32 %28, %26
  tail call void @wbkgdset(ptr noundef %24, i32 noundef %29) #13
  %30 = load ptr, ptr %23, align 8, !tbaa !4
  %31 = getelementptr inbounds nuw i8, ptr %0, i64 40
  %32 = load i32, ptr %31, align 8, !tbaa !50
  %33 = tail call i32 @wattrset(ptr noundef %30, i32 noundef %32) #13
  %34 = load ptr, ptr %23, align 8, !tbaa !4
  %35 = tail call i32 @werase(ptr noundef %34) #13
  %36 = load i32, ptr %9, align 8, !tbaa !19
  %37 = and i32 %36, 4
  %.not52 = icmp eq i32 %37, 0
  br i1 %.not52, label %61, label %38

38:                                               ; preds = %22
  %39 = getelementptr inbounds nuw i8, ptr %0, i64 30
  %40 = load i16, ptr %39, align 2, !tbaa !51
  %.not55 = icmp eq i16 %40, 0
  br i1 %.not55, label %59, label %41

41:                                               ; preds = %38
  %42 = getelementptr inbounds nuw i8, ptr %0, i64 2
  %43 = load i16, ptr %42, align 2, !tbaa !25
  %44 = sext i16 %43 to i32
  %45 = getelementptr inbounds nuw i8, ptr %0, i64 24
  %46 = load i32, ptr %45, align 8, !tbaa !33
  %47 = add nsw i32 %46, %44
  %48 = icmp eq i32 %47, 1
  br i1 %48, label %49, label %59

49:                                               ; preds = %41
  %50 = getelementptr inbounds nuw i8, ptr %0, i64 16
  %51 = load i32, ptr %50, align 8, !tbaa !26
  %52 = getelementptr inbounds nuw i8, ptr %0, i64 4
  %53 = load i16, ptr %52, align 4, !tbaa !27
  %54 = sext i16 %53 to i32
  %55 = icmp ne i32 %51, %54
  %56 = and i32 %36, 512
  %.not56 = icmp eq i32 %56, 0
  %or.cond = or i1 %.not56, %55
  br i1 %or.cond, label %59, label %57

57:                                               ; preds = %49
  %58 = load ptr, ptr %23, align 8, !tbaa !4
  tail call fastcc void @Undo_Justification(ptr noundef %0, ptr noundef %58)
  br label %92

59:                                               ; preds = %49, %41, %38
  %60 = load ptr, ptr %23, align 8, !tbaa !4
  tail call fastcc void @Buffer_To_Window(ptr noundef %0, ptr noundef %60)
  br label %92

61:                                               ; preds = %22
  %62 = getelementptr inbounds nuw i8, ptr %4, i64 48
  %63 = load ptr, ptr %62, align 8, !tbaa !15
  %.not53 = icmp eq ptr %63, null
  br i1 %.not53, label %64, label %68

64:                                               ; preds = %61
  %65 = getelementptr inbounds nuw i8, ptr %4, i64 40
  %66 = load ptr, ptr %65, align 8, !tbaa !16
  %.not54 = icmp eq ptr %66, null
  %67 = load ptr, ptr @stdscr, align 8
  %spec.select = select i1 %.not54, ptr %67, ptr %66
  br label %68

68:                                               ; preds = %64, %61
  %69 = phi ptr [ %63, %61 ], [ %spec.select, %64 ]
  %70 = load ptr, ptr %23, align 8, !tbaa !4
  %71 = getelementptr inbounds nuw i8, ptr %0, i64 6
  %72 = load i16, ptr %71, align 2, !tbaa !28
  %73 = sext i16 %72 to i32
  %74 = getelementptr inbounds nuw i8, ptr %0, i64 8
  %75 = load i16, ptr %74, align 8, !tbaa !30
  %76 = sext i16 %75 to i32
  %77 = getelementptr inbounds nuw i8, ptr %0, i64 2
  %78 = load i16, ptr %77, align 2, !tbaa !25
  %79 = sext i16 %78 to i32
  %80 = add nsw i32 %79, -1
  %81 = getelementptr inbounds nuw i8, ptr %0, i64 4
  %82 = load i16, ptr %81, align 4, !tbaa !27
  %83 = sext i16 %82 to i32
  %84 = add nsw i32 %83, -1
  %85 = tail call i32 @copywin(ptr noundef %70, ptr noundef %69, i32 noundef 0, i32 noundef 0, i32 noundef %73, i32 noundef %76, i32 noundef %80, i32 noundef %84, i32 noundef 0) #13
  tail call void @wsyncup(ptr noundef %69) #13
  %86 = load ptr, ptr %23, align 8, !tbaa !4
  tail call fastcc void @Buffer_To_Window(ptr noundef %0, ptr noundef %86)
  %87 = load i16, ptr %0, align 8, !tbaa !34
  %88 = or i16 %87, 2
  store i16 %88, ptr %0, align 8, !tbaa !34
  %89 = tail call i32 @_nc_Refresh_Current_Field(ptr noundef nonnull %4)
  br label %92

90:                                               ; preds = %18
  %91 = tail call fastcc i32 @Display_Or_Erase_Field(ptr noundef nonnull %0, i1 noundef zeroext false)
  br label %92

92:                                               ; preds = %2, %5, %8, %12, %68, %59, %57, %90, %1
  %.0 = phi i32 [ -2, %1 ], [ 0, %57 ], [ 0, %59 ], [ 0, %68 ], [ %91, %90 ], [ 0, %12 ], [ 0, %8 ], [ 0, %5 ], [ 0, %2 ]
  ret i32 %.0
}